target datalayout = "e-m:e-p270:32:32-p271:32:32-p272:64:64-i64:64-i128:128-f80:128-n8:16:32:64-S128"
target triple = "x86_64-pc-linux-gnu"

%"class.ThreadsList::Iterator" = type { ptr }
%"struct.Atomic::LoadImpl" = type { i8 }
%"struct.Atomic::PlatformOrderedLoad" = type { i8 }
%class.ScopedFence = type { ptr }
%"struct.Atomic::LoadImpl.8" = type { i8 }
%"struct.Atomic::PlatformLoad" = type { i8 }
%class.ThreadsList = type { i32, i32, ptr, ptr, i64 }

@_ZN17ThreadsSMRSupport17_java_thread_listE = external global ptr, align 8
@PrefetchScanIntervalInBytes = external global i64, align 8

; Function Attrs: mustprogress nounwind uwtable
define internal void @_ZL16compiler_barrierv() #1 {
  call void asm sideeffect "", "~{memory},~{dirflag},~{fpsr},~{flags}"() #10, !srcloc !17
  ret void
}

; Function Attrs: mustprogress nounwind uwtable
define linkonce_odr hidden void @_ZN11OrderAccess7acquireEv() #1 comdat align 2 {
  call void @_ZL16compiler_barrierv()
  ret void
}

; Function Attrs: mustprogress nounwind uwtable
define linkonce_odr hidden void @_ZN18ScopedFenceGeneralIL15ScopedFenceType0EE7postfixEv(ptr noundef nonnull align 1 dereferenceable(1) %0) #1 comdat align 2 {
  %2 = alloca ptr, align 8
  store ptr %0, ptr %2, align 8
  call void @_ZN11OrderAccess7acquireEv()
  ret void
}

; Function Attrs: mustprogress nounwind uwtable
define linkonce_odr hidden noundef ptr @_ZNK6Atomic12PlatformLoadILm8EEclIP11ThreadsListEET_PVKS5_(ptr noundef nonnull align 1 dereferenceable(1) %0, ptr noundef %1) #1 comdat align 2 {
  %3 = alloca ptr, align 8
  %4 = alloca ptr, align 8
  store ptr %0, ptr %3, align 8
  store ptr %1, ptr %4, align 8
  %5 = load ptr, ptr %4, align 8
  %6 = load volatile ptr, ptr %5, align 8
  ret ptr %6
}

; Function Attrs: mustprogress nounwind uwtable
define linkonce_odr hidden void @_ZN18ScopedFenceGeneralIL15ScopedFenceType0EE6prefixEv(ptr noundef nonnull align 1 dereferenceable(1) %0) #1 comdat align 2 {
  %2 = alloca ptr, align 8
  store ptr %0, ptr %2, align 8
  ret void
}

; Function Attrs: mustprogress nounwind uwtable
define linkonce_odr hidden void @_ZN11ScopedFenceIL15ScopedFenceType0EE7postfixEv(ptr noundef nonnull align 8 dereferenceable(8) %0) #1 comdat align 2 {
  %2 = alloca ptr, align 8
  store ptr %0, ptr %2, align 8
  %3 = load ptr, ptr %2, align 8
  call void @_ZN18ScopedFenceGeneralIL15ScopedFenceType0EE7postfixEv(ptr noundef nonnull align 1 dereferenceable(1) %3)
  ret void
}

; Function Attrs: mustprogress nounwind uwtable
define linkonce_odr hidden noundef ptr @_ZNK6Atomic8LoadImplIP11ThreadsListNS_12PlatformLoadILm8EEEvEclEPVKS2_(ptr noundef nonnull align 1 dereferenceable(1) %0, ptr noundef %1) #1 comdat align 2 {
  %3 = alloca ptr, align 8
  %4 = alloca ptr, align 8
  %5 = alloca %"struct.Atomic::PlatformLoad", align 1
  store ptr %0, ptr %3, align 8
  store ptr %1, ptr %4, align 8
  %6 = load ptr, ptr %4, align 8
  %7 = call noundef ptr @_ZNK6Atomic12PlatformLoadILm8EEclIP11ThreadsListEET_PVKS5_(ptr noundef nonnull align 1 dereferenceable(1) %5, ptr noundef %6)
  ret ptr %7
}

; Function Attrs: mustprogress nounwind uwtable
define linkonce_odr hidden void @_ZN11ScopedFenceIL15ScopedFenceType0EE6prefixEv(ptr noundef nonnull align 8 dereferenceable(8) %0) #1 comdat align 2 {
  %2 = alloca ptr, align 8
  store ptr %0, ptr %2, align 8
  %3 = load ptr, ptr %2, align 8
  call void @_ZN18ScopedFenceGeneralIL15ScopedFenceType0EE6prefixEv(ptr noundef nonnull align 1 dereferenceable(1) %3)
  ret void
}

; Function Attrs: mustprogress nounwind uwtable
define linkonce_odr hidden void @_ZN11ScopedFenceIL15ScopedFenceType0EED2Ev(ptr noundef nonnull align 8 dereferenceable(8) %0) unnamed_addr #1 comdat align 2 {
  %2 = alloca ptr, align 8
  store ptr %0, ptr %2, align 8
  %3 = load ptr, ptr %2, align 8
  call void @_ZN11ScopedFenceIL15ScopedFenceType0EE7postfixEv(ptr noundef nonnull align 8 dereferenceable(8) %3)
  ret void
}

; Function Attrs: mustprogress nounwind uwtable
define linkonce_odr hidden noundef ptr @_ZN6Atomic4loadIP11ThreadsListEET_PVKS3_(ptr noundef %0) #1 comdat align 2 {
  %2 = alloca ptr, align 8
  %3 = alloca %"struct.Atomic::LoadImpl.8", align 1
  store ptr %0, ptr %2, align 8
  %4 = load ptr, ptr %2, align 8
  %5 = call noundef ptr @_ZNK6Atomic8LoadImplIP11ThreadsListNS_12PlatformLoadILm8EEEvEclEPVKS2_(ptr noundef nonnull align 1 dereferenceable(1) %3, ptr noundef %4)
  ret ptr %5
}

; Function Attrs: mustprogress nounwind uwtable
define linkonce_odr hidden void @_ZN11ScopedFenceIL15ScopedFenceType0EEC2EPv(ptr noundef nonnull align 8 dereferenceable(8) %0, ptr noundef %1) unnamed_addr #1 comdat align 2 {
  %3 = alloca ptr, align 8
  %4 = alloca ptr, align 8
  store ptr %0, ptr %3, align 8
  store ptr %1, ptr %4, align 8
  %5 = load ptr, ptr %3, align 8
  %6 = getelementptr inbounds %class.ScopedFence, ptr %5, i32 0, i32 0
  %7 = load ptr, ptr %4, align 8
  store ptr %7, ptr %6, align 8
  call void @_ZN11ScopedFenceIL15ScopedFenceType0EE6prefixEv(ptr noundef nonnull align 8 dereferenceable(8) %5)
  ret void
}

; Function Attrs: mustprogress nounwind uwtable
define linkonce_odr hidden noundef ptr @_ZNK6Atomic19PlatformOrderedLoadILm8EL15ScopedFenceType0EEclIP11ThreadsListEET_PVKS6_(ptr noundef nonnull align 1 dereferenceable(1) %0, ptr noundef %1) #1 comdat align 2 {
  %3 = alloca ptr, align 8
  %4 = alloca ptr, align 8
  %5 = alloca %class.ScopedFence, align 8
  store ptr %0, ptr %3, align 8
  store ptr %1, ptr %4, align 8
  %6 = load ptr, ptr %4, align 8
  call void @_ZN11ScopedFenceIL15ScopedFenceType0EEC2EPv(ptr noundef nonnull align 8 dereferenceable(8) %5, ptr noundef %6)
  %7 = load ptr, ptr %4, align 8
  %8 = call noundef ptr @_ZN6Atomic4loadIP11ThreadsListEET_PVKS3_(ptr noundef %7)
  call void @_ZN11ScopedFenceIL15ScopedFenceType0EED2Ev(ptr noundef nonnull align 8 dereferenceable(8) %5) #10
  ret ptr %8
}

; Function Attrs: mustprogress nounwind uwtable
define linkonce_odr hidden void @_ZNK11ThreadsList8Iterator16assert_same_listES0_(ptr noundef nonnull align 8 dereferenceable(8) %0, ptr %1) #1 comdat align 2 {
  %3 = alloca %"class.ThreadsList::Iterator", align 8
  %4 = alloca ptr, align 8
  %5 = getelementptr inbounds %"class.ThreadsList::Iterator", ptr %3, i32 0, i32 0
  store ptr %1, ptr %5, align 8
  store ptr %0, ptr %4, align 8
  ret void
}

; Function Attrs: mustprogress nounwind uwtable
define linkonce_odr hidden noundef i32 @_ZN11ThreadsList8Iterator11check_indexEPS_j(ptr noundef %0, i32 noundef %1) #1 comdat align 2 {
  %3 = alloca ptr, align 8
  %4 = alloca i32, align 4
  store ptr %0, ptr %3, align 8
  store i32 %1, ptr %4, align 4
  %5 = load i32, ptr %4, align 4
  ret i32 %5
}

; Function Attrs: mustprogress nounwind uwtable
define linkonce_odr hidden noundef ptr @_ZNK11ThreadsList7threadsEv(ptr noundef nonnull align 8 dereferenceable(32) %0) #1 comdat align 2 {
  %2 = alloca ptr, align 8
  store ptr %0, ptr %2, align 8
  %3 = load ptr, ptr %2, align 8
  %4 = getelementptr inbounds %class.ThreadsList, ptr %3, i32 0, i32 3
  %5 = load ptr, ptr %4, align 8
  ret ptr %5
}

; Function Attrs: mustprogress nounwind uwtable
define linkonce_odr hidden noundef ptr @_ZNK6Atomic8LoadImplIP11ThreadsListNS_19PlatformOrderedLoadILm8EL15ScopedFenceType0EEEvEclEPVKS2_(ptr noundef nonnull align 1 dereferenceable(1) %0, ptr noundef %1) #1 comdat align 2 {
  %3 = alloca ptr, align 8
  %4 = alloca ptr, align 8
  %5 = alloca %"struct.Atomic::PlatformOrderedLoad", align 1
  store ptr %0, ptr %3, align 8
  store ptr %1, ptr %4, align 8
  %6 = load ptr, ptr %4, align 8
  %7 = call noundef ptr @_ZNK6Atomic19PlatformOrderedLoadILm8EL15ScopedFenceType0EEclIP11ThreadsListEET_PVKS6_(ptr noundef nonnull align 1 dereferenceable(1) %5, ptr noundef %6)
  ret ptr %7
}

; Function Attrs: mustprogress nounwind uwtable
define linkonce_odr hidden void @_ZN8Prefetch4readEPKvl(ptr noundef %0, i64 noundef %1) #1 comdat align 2 {
  %3 = alloca ptr, align 8
  %4 = alloca i64, align 8
  store ptr %0, ptr %3, align 8
  store i64 %1, ptr %4, align 8
  %5 = load ptr, ptr %3, align 8
  %6 = load i64, ptr %4, align 8
  call void asm sideeffect "prefetcht0 ($0,$1,1)", "r,r,~{dirflag},~{fpsr},~{flags}"(ptr %5, i64 %6) #10, !srcloc !18
  ret void
}

; Function Attrs: mustprogress nounwind uwtable
define linkonce_odr hidden void @_ZNK11ThreadsList8Iterator22assert_dereferenceableEv(ptr noundef nonnull align 8 dereferenceable(8) %0) #1 comdat align 2 {
  %2 = alloca ptr, align 8
  store ptr %0, ptr %2, align 8
  ret void
}

; Function Attrs: mustprogress nounwind uwtable
define linkonce_odr hidden void @_ZNK11ThreadsList8Iterator19assert_not_singularEv(ptr noundef nonnull align 8 dereferenceable(8) %0) #1 comdat align 2 {
  %2 = alloca ptr, align 8
  store ptr %0, ptr %2, align 8
  ret void
}

; Function Attrs: mustprogress nounwind uwtable
define linkonce_odr hidden noundef zeroext i1 @_ZNK11ThreadsList8IteratoreqES0_(ptr noundef nonnull align 8 dereferenceable(8) %0, ptr %1) #1 comdat align 2 {
  %3 = alloca %"class.ThreadsList::Iterator", align 8
  %4 = alloca ptr, align 8
  %5 = alloca %"class.ThreadsList::Iterator", align 8
  %6 = getelementptr inbounds %"class.ThreadsList::Iterator", ptr %3, i32 0, i32 0
  store ptr %1, ptr %6, align 8
  store ptr %0, ptr %4, align 8
  %7 = load ptr, ptr %4, align 8
  call void @_ZNK11ThreadsList8Iterator19assert_not_singularEv(ptr noundef nonnull align 8 dereferenceable(8) %7)
  call void @llvm.memcpy.p0.p0.i64(ptr align 8 %5, ptr align 8 %3, i64 8, i1 false)
  %8 = getelementptr inbounds %"class.ThreadsList::Iterator", ptr %5, i32 0, i32 0
  %9 = load ptr, ptr %8, align 8
  call void @_ZNK11ThreadsList8Iterator16assert_same_listES0_(ptr noundef nonnull align 8 dereferenceable(8) %7, ptr %9)
  %10 = getelementptr inbounds %"class.ThreadsList::Iterator", ptr %7, i32 0, i32 0
  %11 = load ptr, ptr %10, align 8
  %12 = getelementptr inbounds %"class.ThreadsList::Iterator", ptr %3, i32 0, i32 0
  %13 = load ptr, ptr %12, align 8
  %14 = icmp eq ptr %11, %13
  ret i1 %14
}

; Function Attrs: mustprogress nounwind uwtable
define linkonce_odr hidden noundef i32 @_ZNK11ThreadsList6lengthEv(ptr noundef nonnull align 8 dereferenceable(32) %0) #1 comdat align 2 {
  %2 = alloca ptr, align 8
  store ptr %0, ptr %2, align 8
  %3 = load ptr, ptr %2, align 8
  %4 = getelementptr inbounds %class.ThreadsList, ptr %3, i32 0, i32 1
  %5 = load i32, ptr %4, align 4
  ret i32 %5
}

; Function Attrs: mustprogress nounwind uwtable
define linkonce_odr hidden void @_ZN11ThreadsList8IteratorC2EPS_j(ptr noundef nonnull align 8 dereferenceable(8) %0, ptr noundef %1, i32 noundef %2) unnamed_addr #1 comdat align 2 {
  %4 = alloca ptr, align 8
  %5 = alloca ptr, align 8
  %6 = alloca i32, align 4
  store ptr %0, ptr %4, align 8
  store ptr %1, ptr %5, align 8
  store i32 %2, ptr %6, align 4
  %7 = load ptr, ptr %4, align 8
  %8 = getelementptr inbounds %"class.ThreadsList::Iterator", ptr %7, i32 0, i32 0
  %9 = load ptr, ptr %5, align 8
  %10 = call noundef ptr @_ZNK11ThreadsList7threadsEv(ptr noundef nonnull align 8 dereferenceable(32) %9)
  %11 = load ptr, ptr %5, align 8
  %12 = load i32, ptr %6, align 4
  %13 = call noundef i32 @_ZN11ThreadsList8Iterator11check_indexEPS_j(ptr noundef %11, i32 noundef %12)
  %14 = zext i32 %13 to i64
  %15 = getelementptr inbounds ptr, ptr %10, i64 %14
  store ptr %15, ptr %8, align 8
  ret void
}

; Function Attrs: mustprogress nounwind uwtable
define linkonce_odr hidden noundef ptr @_ZN6Atomic12load_acquireIP11ThreadsListEET_PVKS3_(ptr noundef %0) #1 comdat align 2 {
  %2 = alloca ptr, align 8
  %3 = alloca %"struct.Atomic::LoadImpl", align 1
  store ptr %0, ptr %2, align 8
  %4 = load ptr, ptr %2, align 8
  %5 = call noundef ptr @_ZNK6Atomic8LoadImplIP11ThreadsListNS_19PlatformOrderedLoadILm8EL15ScopedFenceType0EEEvEclEPVKS2_(ptr noundef nonnull align 1 dereferenceable(1) %3, ptr noundef %4)
  ret ptr %5
}

; Function Attrs: mustprogress nounwind uwtable
define linkonce_odr hidden noundef nonnull align 8 dereferenceable(8) ptr @_ZN11ThreadsList8IteratorppEv(ptr noundef nonnull align 8 dereferenceable(8) %0) #1 comdat align 2 {
  %2 = alloca ptr, align 8
  store ptr %0, ptr %2, align 8
  %3 = load ptr, ptr %2, align 8
  call void @_ZNK11ThreadsList8Iterator19assert_not_singularEv(ptr noundef nonnull align 8 dereferenceable(8) %3)
  call void @_ZNK11ThreadsList8Iterator22assert_dereferenceableEv(ptr noundef nonnull align 8 dereferenceable(8) %3)
  %4 = getelementptr inbounds %"class.ThreadsList::Iterator", ptr %3, i32 0, i32 0
  %5 = load ptr, ptr %4, align 8
  %6 = getelementptr inbounds ptr, ptr %5, i32 1
  store ptr %6, ptr %4, align 8
  ret ptr %3
}

; Function Attrs: mustprogress nounwind uwtable
define linkonce_odr hidden noundef ptr @_ZNK11ThreadsList8IteratordeEv(ptr noundef nonnull align 8 dereferenceable(8) %0) #1 comdat align 2 {
  %2 = alloca ptr, align 8
  store ptr %0, ptr %2, align 8
  %3 = load ptr, ptr %2, align 8
  call void @_ZNK11ThreadsList8Iterator19assert_not_singularEv(ptr noundef nonnull align 8 dereferenceable(8) %3)
  call void @_ZNK11ThreadsList8Iterator22assert_dereferenceableEv(ptr noundef nonnull align 8 dereferenceable(8) %3)
  %4 = getelementptr inbounds %"class.ThreadsList::Iterator", ptr %3, i32 0, i32 0
  %5 = load ptr, ptr %4, align 8
  %6 = load i64, ptr @PrefetchScanIntervalInBytes, align 8
  call void @_ZN8Prefetch4readEPKvl(ptr noundef %5, i64 noundef %6)
  %7 = getelementptr inbounds %"class.ThreadsList::Iterator", ptr %3, i32 0, i32 0
  %8 = load ptr, ptr %7, align 8
  %9 = load ptr, ptr %8, align 8
  ret ptr %9
}

; Function Attrs: mustprogress nounwind uwtable
define linkonce_odr hidden noundef zeroext i1 @_ZNK11ThreadsList8IteratorneES0_(ptr noundef nonnull align 8 dereferenceable(8) %0, ptr %1) #1 comdat align 2 {
  %3 = alloca %"class.ThreadsList::Iterator", align 8
  %4 = alloca ptr, align 8
  %5 = alloca %"class.ThreadsList::Iterator", align 8
  %6 = getelementptr inbounds %"class.ThreadsList::Iterator", ptr %3, i32 0, i32 0
  store ptr %1, ptr %6, align 8
  store ptr %0, ptr %4, align 8
  %7 = load ptr, ptr %4, align 8
  call void @llvm.memcpy.p0.p0.i64(ptr align 8 %5, ptr align 8 %3, i64 8, i1 false)
  %8 = getelementptr inbounds %"class.ThreadsList::Iterator", ptr %5, i32 0, i32 0
  %9 = load ptr, ptr %8, align 8
  %10 = call noundef zeroext i1 @_ZNK11ThreadsList8IteratoreqES0_(ptr noundef nonnull align 8 dereferenceable(8) %7, ptr %9)
  %11 = xor i1 %10, true
  ret i1 %11
}

; Function Attrs: mustprogress nounwind uwtable
define linkonce_odr hidden ptr @_ZN11ThreadsList3endEv(ptr noundef nonnull align 8 dereferenceable(32) %0) #1 comdat align 2 {
  %2 = alloca %"class.ThreadsList::Iterator", align 8
  %3 = alloca ptr, align 8
  store ptr %0, ptr %3, align 8
  %4 = load ptr, ptr %3, align 8
  %5 = call noundef i32 @_ZNK11ThreadsList6lengthEv(ptr noundef nonnull align 8 dereferenceable(32) %4)
  call void @_ZN11ThreadsList8IteratorC2EPS_j(ptr noundef nonnull align 8 dereferenceable(8) %2, ptr noundef %4, i32 noundef %5)
  %6 = getelementptr inbounds %"class.ThreadsList::Iterator", ptr %2, i32 0, i32 0
  %7 = load ptr, ptr %6, align 8
  ret ptr %7
}

; Function Attrs: mustprogress nounwind uwtable
define linkonce_odr hidden ptr @_ZN11ThreadsList5beginEv(ptr noundef nonnull align 8 dereferenceable(32) %0) #1 comdat align 2 {
  %2 = alloca %"class.ThreadsList::Iterator", align 8
  %3 = alloca ptr, align 8
  store ptr %0, ptr %3, align 8
  %4 = load ptr, ptr %3, align 8
  call void @_ZN11ThreadsList8IteratorC2EPS_j(ptr noundef nonnull align 8 dereferenceable(8) %2, ptr noundef %4, i32 noundef 0)
  %5 = getelementptr inbounds %"class.ThreadsList::Iterator", ptr %2, i32 0, i32 0
  %6 = load ptr, ptr %5, align 8
  ret ptr %6
}

; Function Attrs: mustprogress nounwind uwtable
define linkonce_odr hidden noundef ptr @_ZN17ThreadsSMRSupport20get_java_thread_listEv() #1 comdat align 2 {
  %1 = call noundef ptr @_ZN6Atomic12load_acquireIP11ThreadsListEET_PVKS3_(ptr noundef @_ZN17ThreadsSMRSupport17_java_thread_listE)
  ret ptr %1
}

; Function Attrs: mustprogress nounwind uwtable
define hidden void @_ZN7Threads11metadata_doEP15MetadataClosure(ptr noundef %0) #1 align 2 {
  %2 = alloca ptr, align 8
  %3 = alloca ptr, align 8
  %4 = alloca %"class.ThreadsList::Iterator", align 8
  %5 = alloca %"class.ThreadsList::Iterator", align 8
  %6 = alloca %"class.ThreadsList::Iterator", align 8
  %7 = alloca ptr, align 8
  store ptr %0, ptr %2, align 8
  %8 = call noundef ptr @_ZN17ThreadsSMRSupport20get_java_thread_listEv()
  store ptr %8, ptr %3, align 8
  %9 = load ptr, ptr %3, align 8
  %10 = call ptr @_ZN11ThreadsList5beginEv(ptr noundef nonnull align 8 dereferenceable(32) %9)
  %11 = getelementptr inbounds %"class.ThreadsList::Iterator", ptr %4, i32 0, i32 0
  store ptr %10, ptr %11, align 8
  %12 = load ptr, ptr %3, align 8
  %13 = call ptr @_ZN11ThreadsList3endEv(ptr noundef nonnull align 8 dereferenceable(32) %12)
  %14 = getelementptr inbounds %"class.ThreadsList::Iterator", ptr %5, i32 0, i32 0
  store ptr %13, ptr %14, align 8
  br label %15

15:                                               ; preds = %23, %1
  call void @llvm.memcpy.p0.p0.i64(ptr align 8 %6, ptr align 8 %5, i64 8, i1 false)
  %16 = getelementptr inbounds %"class.ThreadsList::Iterator", ptr %6, i32 0, i32 0
  %17 = load ptr, ptr %16, align 8
  %18 = call noundef zeroext i1 @_ZNK11ThreadsList8IteratorneES0_(ptr noundef nonnull align 8 dereferenceable(8) %4, ptr %17)
  br i1 %18, label %19, label %25

19:                                               ; preds = %15
  %20 = call noundef ptr @_ZNK11ThreadsList8IteratordeEv(ptr noundef nonnull align 8 dereferenceable(8) %4)
  store ptr %20, ptr %7, align 8
  %21 = load ptr, ptr %7, align 8
  %22 = load ptr, ptr %2, align 8
  call void @_ZN10JavaThread11metadata_doEP15MetadataClosure(ptr noundef nonnull align 8 dereferenceable(1800) %21, ptr noundef %22)
  br label %23

23:                                               ; preds = %19
  %24 = call noundef nonnull align 8 dereferenceable(8) ptr @_ZN11ThreadsList8IteratorppEv(ptr noundef nonnull align 8 dereferenceable(8) %4)
  br label %15

25:                                               ; preds = %15
  ret void
}